; Function Attrs: mustprogress uwtable
define noundef zeroext i1 @_ZN3g2o14VertexPointXYZ4readERSi(ptr noundef nonnull align 8 dereferenceable(216) %0, ptr noundef nonnull align 8 dereferenceable(16) %1) unnamed_addr #4 align 2 personality ptr @__gxx_personality_v0 {
  %3 = getelementptr inbounds nuw i8, ptr %0, i64 168
  %invariant.gep.i = getelementptr i8, ptr %1, i64 32
  br label %4

4:                                                ; preds = %10, %2
  %indvars.iv.i = phi i64 [ 0, %2 ], [ %indvars.iv.next.i, %10 ]
  %5 = load ptr, ptr %1, align 8, !tbaa !3
  %6 = getelementptr i8, ptr %5, i64 -24
  %7 = load i64, ptr %6, align 8
  %gep.i = getelementptr i8, ptr %invariant.gep.i, i64 %7
  %8 = load i32, ptr %gep.i, align 8, !tbaa !6
  %9 = icmp eq i32 %8, 0
  br i1 %9, label %10, label %_ZN3g2o8internal10readVectorIN5Eigen6MatrixIdLi3ELi1ELi0ELi3ELi1EEEEEbRSiRNS2_9DenseBaseIT_EE.exit

10:                                               ; preds = %4
  %11 = getelementptr inbounds nuw double, ptr %3, i64 %indvars.iv.i
  %12 = tail call noundef nonnull align 8 dereferenceable(16) ptr @_ZNSi10_M_extractIdEERSiRT_(ptr noundef nonnull align 8 dereferenceable(16) %1, ptr noundef nonnull align 8 dereferenceable(8) %11)
  %indvars.iv.next.i = add nuw nsw i64 %indvars.iv.i, 1
  %exitcond.not.i = icmp eq i64 %indvars.iv.next.i, 3
  br i1 %exitcond.not.i, label %..critedge_crit_edge.i, label %4, !llvm.loop !19

..critedge_crit_edge.i:                           ; preds = %10
  %.pre.i = load ptr, ptr %1, align 8, !tbaa !3
  %.phi.trans.insert.i = getelementptr i8, ptr %.pre.i, i64 -24
  %.pre11.i = load i64, ptr %.phi.trans.insert.i, align 8
  br label %_ZN3g2o8internal10readVectorIN5Eigen6MatrixIdLi3ELi1ELi0ELi3ELi1EEEEEbRSiRNS2_9DenseBaseIT_EE.exit

_ZN3g2o8internal10readVectorIN5Eigen6MatrixIdLi3ELi1ELi0ELi3ELi1EEEEEbRSiRNS2_9DenseBaseIT_EE.exit: ; preds = %4, %..critedge_crit_edge.i
  %13 = phi i64 [ %.pre11.i, %..critedge_crit_edge.i ], [ %7, %4 ]
  %14 = getelementptr inbounds i8, ptr %1, i64 %13
  %15 = getelementptr inbounds nuw i8, ptr %14, i64 32
  %16 = load i32, ptr %15, align 8, !tbaa !6
  %17 = icmp eq i32 %16, 0
  %18 = and i32 %16, 2
  %19 = icmp ne i32 %18, 0
  %20 = or i1 %17, %19
  ret i1 %20
}